target datalayout = "e-m:e-p270:32:32-p271:32:32-p272:64:64-i64:64-i128:128-f80:128-n8:16:32:64-S128"
target triple = "x86_64-pc-linux-gnu"

%struct._GLFWlibrary = type { i32, %struct.GLFWallocator, %struct._GLFWplatform, %struct.anon, ptr, ptr, ptr, ptr, i32, i32, [16 x %struct._GLFWjoystick], ptr, i32, %struct._GLFWtls, %struct._GLFWtls, %struct._GLFWmutex, %struct.anon.8, %struct.anon.9, %struct.anon.10, %struct.anon.11, %struct.anon.12, %struct._GLFWlibraryWayland, %struct._GLFWlibraryX11, %struct._GLFWlibraryNull, %struct._GLFWlibraryGLX, %struct._GLFWlibraryLinux }
%struct.GLFWallocator = type { ptr, ptr, ptr, ptr }
%struct._GLFWplatform = type { i32, ptr, ptr, ptr, ptr, ptr, ptr, ptr, ptr, ptr, ptr, ptr, ptr, ptr, ptr, ptr, ptr, ptr, ptr, ptr, ptr, ptr, ptr, ptr, ptr, ptr, ptr, ptr, ptr, ptr, ptr, ptr, ptr, ptr, ptr, ptr, ptr, ptr, ptr, ptr, ptr, ptr, ptr, ptr, ptr, ptr, ptr, ptr, ptr, ptr, ptr, ptr, ptr, ptr, ptr, ptr, ptr, ptr, ptr, ptr, ptr, ptr, ptr, ptr, ptr, ptr, ptr, ptr, ptr, ptr, ptr, ptr }
%struct.anon = type { %struct._GLFWinitconfig, %struct._GLFWfbconfig, %struct._GLFWwndconfig, %struct._GLFWctxconfig, i32 }
%struct._GLFWinitconfig = type { i32, i32, i32, ptr, %struct.anon.0, %struct.anon.1, %struct.anon.2 }
%struct.anon.0 = type { i32, i32 }
%struct.anon.1 = type { i32 }
%struct.anon.2 = type { i32 }
%struct._GLFWfbconfig = type { i32, i32, i32, i32, i32, i32, i32, i32, i32, i32, i32, i32, i32, i32, i32, i32, i64 }
%struct._GLFWwndconfig = type { i32, i32, i32, i32, ptr, i32, i32, i32, i32, i32, i32, i32, i32, i32, i32, i32, i32, %struct.anon.3, %struct.anon.4, %struct.anon.5, %struct.anon.6 }
%struct.anon.3 = type { [256 x i8] }
%struct.anon.4 = type { [256 x i8], [256 x i8] }
%struct.anon.5 = type { i32, i32 }
%struct.anon.6 = type { [256 x i8] }
%struct._GLFWctxconfig = type { i32, i32, i32, i32, i32, i32, i32, i32, i32, i32, ptr, %struct.anon.7 }
%struct.anon.7 = type { i32 }
%struct._GLFWjoystick = type { i32, i32, ptr, i32, ptr, i32, ptr, i32, [128 x i8], ptr, [33 x i8], ptr, %struct._GLFWjoystickLinux }
%struct._GLFWjoystickLinux = type { i32, [4096 x i8], [512 x i32], [64 x i32], [64 x %struct.input_absinfo], [4 x [2 x i32]] }
%struct.input_absinfo = type { i32, i32, i32, i32, i32, i32 }
%struct._GLFWtls = type { %struct._GLFWtlsPOSIX }
%struct._GLFWtlsPOSIX = type { i32, i32 }
%struct._GLFWmutex = type { %struct._GLFWmutexPOSIX }
%struct._GLFWmutexPOSIX = type { i32, %union.pthread_mutex_t }
%union.pthread_mutex_t = type { %struct.__pthread_mutex_s }
%struct.__pthread_mutex_s = type { i32, i32, i32, i32, i32, i16, i16, %struct.__pthread_internal_list }
%struct.__pthread_internal_list = type { ptr, ptr }
%struct.anon.8 = type { i64, %struct._GLFWtimerPOSIX }
%struct._GLFWtimerPOSIX = type { i32, i64 }
%struct.anon.9 = type { i32, ptr, i32, i32, i32, i32, i32, i32, i32, i32, i32, i32, i32, i32, i32, i32, i32, i32, i32, i32, ptr, ptr, ptr, ptr, ptr, ptr, ptr, ptr, ptr, ptr, ptr, ptr, ptr, ptr, ptr, ptr, ptr, ptr, ptr }
%struct.anon.10 = type { ptr, ptr, ptr, ptr, ptr, ptr, ptr, ptr }
%struct.anon.11 = type { i32, ptr, [2 x ptr], ptr, i32, i32, i32, i32, i32, i32, i32 }
%struct.anon.12 = type { ptr, ptr }
%struct._GLFWlibraryWayland = type { ptr, ptr, ptr, ptr, ptr, ptr, ptr, ptr, ptr, ptr, ptr, ptr, ptr, ptr, ptr, ptr, ptr, ptr, ptr, i32, ptr, ptr, ptr, ptr, i32, ptr, ptr, ptr, ptr, ptr, i32, i32, i32, i32, i32, i32, i32, ptr, [256 x i16], [349 x i16], [349 x [5 x i8]], %struct.anon.13, ptr, ptr, %struct.anon.14, %struct.anon.15, %struct.anon.16, %struct.anon.17 }
%struct.anon.13 = type { ptr, ptr, ptr, ptr, ptr, i32, i32, i32, i32, i32, i32, i32, ptr, ptr, ptr, ptr, ptr, ptr, ptr, ptr, ptr, ptr, ptr, ptr, ptr, ptr, ptr, ptr, ptr, ptr, ptr, ptr }
%struct.anon.14 = type { ptr, ptr, ptr, ptr, ptr, ptr, ptr, ptr, ptr, ptr, ptr, ptr, ptr, ptr, ptr, ptr, ptr, ptr, ptr, ptr }
%struct.anon.15 = type { ptr, ptr, ptr, ptr, ptr }
%struct.anon.16 = type { ptr, ptr, ptr, ptr }
%struct.anon.17 = type { ptr, ptr, ptr, i32, ptr, ptr, ptr, ptr, ptr, ptr, ptr, ptr, ptr, ptr, ptr, ptr, ptr, ptr, ptr, ptr, ptr, ptr, ptr, ptr, ptr, ptr, ptr, ptr, ptr }
%struct._GLFWlibraryX11 = type { ptr, i32, i64, float, float, i64, i64, i32, ptr, ptr, i32, ptr, ptr, [349 x [5 x i8]], [256 x i16], [349 x i16], double, double, ptr, [2 x i32], i64, i64, i64, i64, i64, i64, i64, i64, i64, i64, i64, i64, i64, i64, i64, i64, i64, i64, i64, i64, i64, i64, i64, i64, i64, i64, i64, i64, i64, i64, i64, i64, i64, i64, i64, i64, i64, i64, i64, i64, i64, i64, i64, i64, i64, i64, i64, i64, i64, i64, %struct.anon.18, %struct.anon.19, %struct.anon.20, %struct.anon.21, %struct.anon.22, %struct.anon.23, %struct.anon.24, %struct.anon.25, %struct.anon.26, %struct.anon.27, %struct.anon.28, %struct.anon.29, %struct.anon.30 }
%struct.anon.18 = type { ptr, i32, ptr, ptr, ptr, ptr, ptr, ptr, ptr, ptr, ptr, ptr, ptr, ptr, ptr, ptr, ptr, ptr, ptr, ptr, ptr, ptr, ptr, ptr, ptr, ptr, ptr, ptr, ptr, ptr, ptr, ptr, ptr, ptr, ptr, ptr, ptr, ptr, ptr, ptr, ptr, ptr, ptr, ptr, ptr, ptr, ptr, ptr, ptr, ptr, ptr, ptr, ptr, ptr, ptr, ptr, ptr, ptr, ptr, ptr, ptr, ptr, ptr, ptr, ptr, ptr, ptr, ptr, ptr, ptr, ptr, ptr, ptr, ptr, ptr, ptr, ptr, ptr, ptr, ptr, ptr, ptr, ptr, ptr, ptr, ptr, ptr, ptr }
%struct.anon.19 = type { ptr, ptr, ptr, ptr }
%struct.anon.20 = type { i32, ptr, i32, i32, i32, i32, i32, i32, ptr, ptr, ptr, ptr, ptr, ptr, ptr, ptr, ptr, ptr, ptr, ptr, ptr, ptr, ptr, ptr, ptr }
%struct.anon.21 = type { i32, i32, i32, i32, i32, i32, i32, i32, ptr, ptr, ptr, ptr, ptr, ptr, ptr, ptr, ptr }
%struct.anon.22 = type { i32, i32, i32, i32, i32 }
%struct.anon.23 = type { i32, i64, i64 }
%struct.anon.24 = type { ptr, ptr, ptr, ptr, ptr, ptr, ptr }
%struct.anon.25 = type { i32, ptr, i32, i32, ptr, ptr, ptr }
%struct.anon.26 = type { ptr, ptr }
%struct.anon.27 = type { i32, ptr, i32, i32, ptr, ptr, ptr, ptr }
%struct.anon.28 = type { i32, ptr, i32, i32, i32, i32, i32, ptr, ptr }
%struct.anon.29 = type { i32, ptr, i32, i32, i32, i32, ptr, ptr, ptr }
%struct.anon.30 = type { i32, ptr, i32, i32, i32, i32, ptr, ptr, ptr, ptr }
%struct._GLFWlibraryNull = type { i32, i32, ptr, ptr, [121 x i16], [349 x i8] }
%struct._GLFWlibraryGLX = type { i32, i32, i32, i32, ptr, ptr, ptr, ptr, ptr, ptr, ptr, ptr, ptr, ptr, ptr, ptr, ptr, ptr, ptr, ptr, ptr, ptr, ptr, ptr, i32, i32, i32, i32, i32, i32, i32, i32, i32, i32, i32, i32 }
%struct._GLFWlibraryLinux = type { i32, i32, %struct.re_pattern_buffer, i32, i32 }
%struct.re_pattern_buffer = type { ptr, i64, i64, i64, ptr, ptr, i64, i8 }
%struct._GLFWwindow = type { ptr, i32, i32, i32, i32, i32, i32, i32, ptr, i32, %struct.GLFWvidmode, ptr, ptr, ptr, i32, i32, i32, i32, i32, i32, i32, i32, i32, i32, [8 x i8], [349 x i8], double, double, i32, %struct._GLFWcontext, %struct.anon.33, %struct._GLFWwindowWayland, %struct._GLFWwindowX11, %struct._GLFWwindowNull }
%struct.GLFWvidmode = type { i32, i32, i32, i32, i32, i32 }
%struct._GLFWcontext = type { i32, i32, i32, i32, i32, i32, i32, i32, i32, i32, i32, ptr, ptr, ptr, ptr, ptr, ptr, ptr, ptr, ptr, %struct.anon.31, %struct.anon.32, %struct._GLFWcontextGLX }
%struct.anon.31 = type { ptr, ptr, ptr, ptr }
%struct.anon.32 = type { ptr, i32, i32, ptr }
%struct._GLFWcontextGLX = type { ptr, i64 }
%struct.anon.33 = type { ptr, ptr, ptr, ptr, ptr, ptr, ptr, ptr, ptr, ptr, ptr, ptr, ptr, ptr, ptr, ptr, ptr }
%struct._GLFWwindowWayland = type { i32, i32, i32, i32, i32, i32, i32, i32, i32, i32, i32, ptr, ptr, %struct.anon.34, %struct.anon.35, %struct.anon.36, %struct.anon.37, ptr, double, double, ptr, i32, ptr, i64, i64, ptr, i32, ptr, ptr, ptr, ptr, ptr, ptr, %struct.anon.38 }
%struct.anon.34 = type { ptr }
%struct.anon.35 = type { i32, i32, i32, i32, i32, i32 }
%struct.anon.36 = type { ptr, ptr, ptr, i32 }
%struct.anon.37 = type { ptr }
%struct.anon.38 = type { i32, ptr, %struct._GLFWfallbackEdgeWayland, %struct._GLFWfallbackEdgeWayland, %struct._GLFWfallbackEdgeWayland, %struct._GLFWfallbackEdgeWayland, ptr }
%struct._GLFWfallbackEdgeWayland = type { ptr, ptr, ptr }
%struct._GLFWwindowX11 = type { i64, i64, i64, ptr, i32, i32, i32, i32, i32, i32, i32, i32, i32, i32, i32, i32, [256 x i64] }
%struct._GLFWwindowNull = type { i32, i32, i32, i32, i32, i32, i32, i32, i32, i32, i32, float }

@_glfw = external global %struct._GLFWlibrary, align 8

; Function Attrs: inlinehint nounwind uwtable
define internal void @xdg_toplevel_set_minimized(ptr noundef %0) #1 {
  %2 = alloca ptr, align 8
  store ptr %0, ptr %2, align 8, !tbaa !254
  %3 = load ptr, ptr getelementptr inbounds nuw (%struct.anon.14, ptr getelementptr inbounds nuw (%struct._GLFWlibraryWayland, ptr getelementptr inbounds nuw (%struct._GLFWlibrary, ptr @_glfw, i32 0, i32 21), i32 0, i32 44), i32 0, i32 19), align 8, !tbaa !142
  %4 = load ptr, ptr %2, align 8, !tbaa !254
  %5 = load ptr, ptr getelementptr inbounds nuw (%struct.anon.14, ptr getelementptr inbounds nuw (%struct._GLFWlibraryWayland, ptr getelementptr inbounds nuw (%struct._GLFWlibrary, ptr @_glfw, i32 0, i32 21), i32 0, i32 44), i32 0, i32 18), align 8, !tbaa !140
  %6 = load ptr, ptr %2, align 8, !tbaa !254
  %7 = call i32 %5(ptr noundef %6)
  %8 = call ptr (ptr, i32, ptr, i32, i32, ...) %3(ptr noundef %4, i32 noundef 13, ptr noundef null, i32 noundef %7, i32 noundef 0)
  ret void
}

; Function Attrs: nounwind uwtable
define hidden void @_glfwIconifyWindowWayland(ptr noundef %0) #0 {
  %2 = alloca ptr, align 8
  store ptr %0, ptr %2, align 8, !tbaa !3
  %3 = load ptr, ptr %2, align 8, !tbaa !3
  %4 = getelementptr inbounds nuw %struct._GLFWwindow, ptr %3, i32 0, i32 31
  %5 = getelementptr inbounds nuw %struct._GLFWwindowWayland, ptr %4, i32 0, i32 16
  %6 = getelementptr inbounds nuw %struct.anon.37, ptr %5, i32 0, i32 0
  %7 = load ptr, ptr %6, align 8, !tbaa !172
  %8 = icmp ne ptr %7, null
  br i1 %8, label %9, label %16

9:                                                ; preds = %1
  %10 = load ptr, ptr getelementptr inbounds nuw (%struct.anon.17, ptr getelementptr inbounds nuw (%struct._GLFWlibraryWayland, ptr getelementptr inbounds nuw (%struct._GLFWlibrary, ptr @_glfw, i32 0, i32 21), i32 0, i32 47), i32 0, i32 12), align 8, !tbaa !171
  %11 = load ptr, ptr %2, align 8, !tbaa !3
  %12 = getelementptr inbounds nuw %struct._GLFWwindow, ptr %11, i32 0, i32 31
  %13 = getelementptr inbounds nuw %struct._GLFWwindowWayland, ptr %12, i32 0, i32 16
  %14 = getelementptr inbounds nuw %struct.anon.37, ptr %13, i32 0, i32 0
  %15 = load ptr, ptr %14, align 8, !tbaa !172
  call void %10(ptr noundef %15)
  br label %30

16:                                               ; preds = %1
  %17 = load ptr, ptr %2, align 8, !tbaa !3
  %18 = getelementptr inbounds nuw %struct._GLFWwindow, ptr %17, i32 0, i32 31
  %19 = getelementptr inbounds nuw %struct._GLFWwindowWayland, ptr %18, i32 0, i32 15
  %20 = getelementptr inbounds nuw %struct.anon.36, ptr %19, i32 0, i32 1
  %21 = load ptr, ptr %20, align 8, !tbaa !249
  %22 = icmp ne ptr %21, null
  br i1 %22, label %23, label %29

23:                                               ; preds = %16
  %24 = load ptr, ptr %2, align 8, !tbaa !3
  %25 = getelementptr inbounds nuw %struct._GLFWwindow, ptr %24, i32 0, i32 31
  %26 = getelementptr inbounds nuw %struct._GLFWwindowWayland, ptr %25, i32 0, i32 15
  %27 = getelementptr inbounds nuw %struct.anon.36, ptr %26, i32 0, i32 1
  %28 = load ptr, ptr %27, align 8, !tbaa !249
  call void @xdg_toplevel_set_minimized(ptr noundef %28)
  br label %29

29:                                               ; preds = %23, %16
  br label %30

30:                                               ; preds = %29, %9
  ret void
}