; Function Attrs: nounwind uwtable
define hidden void @_glfwIconifyWindowWayland(ptr noundef readonly captures(none) %0) local_unnamed_addr #0 {
  %2 = getelementptr inbounds nuw i8, ptr %0, i64 984
  %3 = load ptr, ptr %2, align 8, !tbaa !160
  %.not = icmp eq ptr %3, null
  br i1 %.not, label %6, label %4

4:                                                ; preds = %1
  %5 = load ptr, ptr getelementptr inbounds nuw (i8, ptr @_glfw, i64 137704), align 8, !tbaa !159
  tail call void %5(ptr noundef nonnull %3) #20
  br label %14

6:                                                ; preds = %1
  %7 = getelementptr inbounds nuw i8, ptr %0, i64 960
  %8 = load ptr, ptr %7, align 8, !tbaa !235
  %.not5 = icmp eq ptr %8, null
  br i1 %.not5, label %14, label %9

9:                                                ; preds = %6
  %10 = load ptr, ptr getelementptr inbounds nuw (i8, ptr @_glfw, i64 137528), align 8, !tbaa !136
  %11 = load ptr, ptr getelementptr inbounds nuw (i8, ptr @_glfw, i64 137520), align 8, !tbaa !93
  %12 = tail call i32 %11(ptr noundef nonnull %8) #20
  %13 = tail call ptr (ptr, i32, ptr, i32, i32, ...) %10(ptr noundef nonnull %8, i32 noundef 13, ptr noundef null, i32 noundef %12, i32 noundef 0) #20
  br label %14

14:                                               ; preds = %6, %9, %4
  ret void
}